target datalayout = "e-m:e-p270:32:32-p271:32:32-p272:64:64-i64:64-i128:128-f80:128-n8:16:32:64-S128"
target triple = "x86_64-pc-linux-gnu"

%struct.pg_compress_specification = type { i32, i32, i32, i32, i8, ptr }
%struct.CompressFileHandle = type { ptr, ptr, ptr, ptr, ptr, ptr, ptr, ptr, ptr, %struct.pg_compress_specification, ptr }

; Function Attrs: nounwind uwtable
define dso_local void @InitCompressFileHandleGzip(ptr noundef %0, ptr noundef byval(%struct.pg_compress_specification) align 8 %1) #0 {
  %3 = alloca ptr, align 8
  store ptr %0, ptr %3, align 8
  %4 = load ptr, ptr %3, align 8
  %5 = getelementptr inbounds nuw %struct.CompressFileHandle, ptr %4, i32 0, i32 0
  store ptr @Gzip_open, ptr %5, align 8
  %6 = load ptr, ptr %3, align 8
  %7 = getelementptr inbounds nuw %struct.CompressFileHandle, ptr %6, i32 0, i32 1
  store ptr @Gzip_open_write, ptr %7, align 8
  %8 = load ptr, ptr %3, align 8
  %9 = getelementptr inbounds nuw %struct.CompressFileHandle, ptr %8, i32 0, i32 2
  store ptr @Gzip_read, ptr %9, align 8
  %10 = load ptr, ptr %3, align 8
  %11 = getelementptr inbounds nuw %struct.CompressFileHandle, ptr %10, i32 0, i32 3
  store ptr @Gzip_write, ptr %11, align 8
  %12 = load ptr, ptr %3, align 8
  %13 = getelementptr inbounds nuw %struct.CompressFileHandle, ptr %12, i32 0, i32 4
  store ptr @Gzip_gets, ptr %13, align 8
  %14 = load ptr, ptr %3, align 8
  %15 = getelementptr inbounds nuw %struct.CompressFileHandle, ptr %14, i32 0, i32 5
  store ptr @Gzip_getc, ptr %15, align 8
  %16 = load ptr, ptr %3, align 8
  %17 = getelementptr inbounds nuw %struct.CompressFileHandle, ptr %16, i32 0, i32 7
  store ptr @Gzip_close, ptr %17, align 8
  %18 = load ptr, ptr %3, align 8
  %19 = getelementptr inbounds nuw %struct.CompressFileHandle, ptr %18, i32 0, i32 6
  store ptr @Gzip_eof, ptr %19, align 8
  %20 = load ptr, ptr %3, align 8
  %21 = getelementptr inbounds nuw %struct.CompressFileHandle, ptr %20, i32 0, i32 8
  store ptr @Gzip_get_error, ptr %21, align 8
  %22 = load ptr, ptr %3, align 8
  %23 = getelementptr inbounds nuw %struct.CompressFileHandle, ptr %22, i32 0, i32 9
  call void @llvm.memcpy.p0.p0.i64(ptr align 8 %23, ptr align 8 %1, i64 32, i1 false)
  %24 = load ptr, ptr %3, align 8
  %25 = getelementptr inbounds nuw %struct.CompressFileHandle, ptr %24, i32 0, i32 10
  store ptr null, ptr %25, align 8
  ret void
}