; Function Attrs: mustprogress nofree norecurse nosync nounwind willreturn memory(argmem: readwrite) uwtable
define dso_local void @InitCompressFileHandleGzip(ptr noundef writeonly captures(none) initializes((0, 112)) %0, ptr noundef readonly byval(%struct.pg_compress_specification) align 8 captures(none) %1) local_unnamed_addr #2 {
  store ptr @Gzip_open, ptr %0, align 8
  %3 = getelementptr inbounds nuw i8, ptr %0, i64 8
  store ptr @Gzip_open_write, ptr %3, align 8
  %4 = getelementptr inbounds nuw i8, ptr %0, i64 16
  store ptr @Gzip_read, ptr %4, align 8
  %5 = getelementptr inbounds nuw i8, ptr %0, i64 24
  store ptr @Gzip_write, ptr %5, align 8
  %6 = getelementptr inbounds nuw i8, ptr %0, i64 32
  store ptr @Gzip_gets, ptr %6, align 8
  %7 = getelementptr inbounds nuw i8, ptr %0, i64 40
  store ptr @Gzip_getc, ptr %7, align 8
  %8 = getelementptr inbounds nuw i8, ptr %0, i64 56
  store ptr @Gzip_close, ptr %8, align 8
  %9 = getelementptr inbounds nuw i8, ptr %0, i64 48
  store ptr @Gzip_eof, ptr %9, align 8
  %10 = getelementptr inbounds nuw i8, ptr %0, i64 64
  store ptr @Gzip_get_error, ptr %10, align 8
  %11 = getelementptr inbounds nuw i8, ptr %0, i64 72
  call void @llvm.memcpy.p0.p0.i64(ptr noundef nonnull align 8 dereferenceable(32) %11, ptr noundef nonnull align 8 dereferenceable(32) %1, i64 32, i1 false)
  %12 = getelementptr inbounds nuw i8, ptr %0, i64 104
  store ptr null, ptr %12, align 8
  ret void
}